Certificate:
    Data:
        Version: 3 (0x2)
        Serial Number: 2 (0x2)
        Signature Algorithm: sha256WithRSAEncryption
        Issuer: C=GB, ST=Scotland, L=Edinburgh, O=m4lky, OU=HomeCA, CN=certs.m4lky.com
        Validity
            Not Before: Feb 21 08:44:57 2026 GMT
            Not After : Mar 18 08:44:57 2027 GMT
        Subject: C=GB, ST=Scotland, O=m4lky, CN=*.m4lky.com
        Subject Public Key Info:
            Public Key Algorithm: rsaEncryption
                Public-Key: (2048 bit)
                Modulus:
                    00:e5:16:9c:a9:3e:87:93:0a:88:63:02:b7:0f:6b:
                    fa:33:20:79:e6:e5:95:e8:99:80:6b:b3:42:a2:76:
                    36:ca:a7:e1:6b:25:e8:d6:49:f8:14:e9:d4:21:5d:
                    55:59:b3:49:ee:3c:c5:d4:e0:0a:86:85:73:b9:f6:
                    df:37:81:17:2b:a8:86:2a:96:9b:af:d9:8e:45:1d:
                    2a:61:82:9e:8a:93:1a:82:c7:41:a4:95:76:a5:38:
                    6c:2d:a9:22:93:df:25:b4:27:cd:a5:1d:21:8e:ff:
                    f0:76:8c:25:ba:c6:79:10:39:c4:d5:a8:7e:e6:f0:
                    5a:6e:0c:a9:76:95:4b:d0:82:5d:11:d9:31:d1:32:
                    9e:ea:02:a0:e6:e0:f7:0b:d1:8f:56:78:c0:23:92:
                    46:6d:ca:11:5a:a6:30:93:8f:dc:d4:9a:2c:9e:b3:
                    d4:91:d2:16:84:ae:6a:61:53:a6:34:fb:f9:1c:c0:
                    05:a8:2a:fb:04:03:37:5f:ef:98:60:a2:99:a2:bf:
                    40:54:13:96:ab:c2:9c:3c:d8:32:59:a2:86:a2:eb:
                    f3:c0:fc:64:a1:8a:3d:ae:a9:2e:98:87:12:72:3e:
                    b9:f2:5c:ba:95:6e:ae:45:f6:a1:b4:9a:47:af:7f:
                    31:58:53:15:61:e0:a6:0b:bb:e1:72:02:b2:ef:2f:
                    4e:0d
                Exponent: 65537 (0x10001)
        X509v3 extensions:
            X509v3 Basic Constraints:
                CA:FALSE
            X509v3 Subject Alternative Name:
                DNS:*.m4lky.com
            X509v3 Subject Key Identifier:
                2B:19:64:A5:FF:78:24:C0:6E:5C:BE:0B:3B:A5:EB:AA:7E:02:D9:59
            X509v3 Authority Key Identifier:
                FA:A9:4E:66:E1:A9:2D:8D:7A:06:29:75:83:BF:1C:FE:42:AC:F9:A8
    Signature Algorithm: sha256WithRSAEncryption
    Signature Value:
        5f:cd:d7:13:5b:99:bc:c0:07:4e:f5:13:bd:6d:80:97:aa:c3:
        28:68:e5:e1:98:24:0f:d5:32:b0:09:3f:59:a2:2d:b3:67:a2:
        1e:0d:33:d3:e7:86:55:08:d5:67:f8:78:b8:b4:19:4f:8e:1a:
        c3:c9:d3:4c:e7:97:9d:cd:26:6b:89:bd:2b:eb:14:9c:03:b0:
        bd:ad:5d:d6:ae:85:a0:40:2d:12:56:22:20:30:ae:04:78:d7:
        8f:3d:4a:35:cc:80:07:e6:88:85:9a:bf:c8:41:a3:3c:72:a3:
        64:23:97:ec:d2:a3:d9:a4:fc:2e:7c:e0:86:19:1d:f3:c5:1a:
        ad:f3:4a:f3:cd:a4:bb:3e:c7:63:47:0b:df:84:9f:ca:22:49:
        a4:b7:09:37:ed:e8:8a:fb:44:02:65:2a:19:f2:28:43:e2:89:
        db:50:a7:b1:b6:e9:88:df:97:ca:f2:a2:a6:52:77:51:97:3b:
        2d:79:00:45:e8:73:d0:48:95:4d:79:97:97:7d:9c:be:d0:5e:
        52:54:5b:c4:86:ec:ce:56:a0:f2:f5:d5:b6:68:a7:d0:2f:08:
        63:bc:30:e1:bf:4c:02:97:20:0e:92:36:b5:10:f0:26:f6:af:
        db:2a:ef:df:17:32:34:78:f9:eb:13:a1:e5:80:07:35:fc:1c:
        a1:22:8f:50
-----BEGIN CERTIFICATE-----
MIIDlTCCAn2gAwIBAgIBAjANBgkqhkiG9w0BAQsFADBvMQswCQYDVQQGEwJHQjER
MA8GA1UECAwIU2NvdGxhbmQxEjAQBgNVBAcMCUVkaW5idXJnaDEOMAwGA1UECgwF
bTRsa3kxDzANBgNVBAsMBkhvbWVDQTEYMBYGA1UEAwwPY2VydHMubTRsa3kuY29t
MB4XDTI2MDIyMTA4NDQ1N1oXDTI3MDMxODA4NDQ1N1owRjELMAkGA1UEBhMCR0Ix
ETAPBgNVBAgMCFNjb3RsYW5kMQ4wDAYDVQQKDAVtNGxreTEUMBIGA1UEAwwLKi5t
NGxreS5jb20wggEiMA0GCSqGSIb3DQEBAQUAA4IBDwAwggEKAoIBAQDlFpypPoeT
CohjArcPa/ozIHnm5ZXomYBrs0KidjbKp+FrJejWSfgU6dQhXVVZs0nuPMXU4AqG
hXO59t83gRcrqIYqlpuv2Y5FHSphgp6KkxqCx0GklXalOGwtqSKT3yW0J82lHSGO
//B2jCW6xnkQOcTVqH7m8FpuDKl2lUvQgl0R2THRMp7qAqDm4PcL0Y9WeMAjkkZt
yhFapjCTj9zUmiyes9SR0haErmphU6Y0+/kcwAWoKvsEAzdf75hgopmiv0BUE5ar
wpw82DJZooai6/PA/GShij2uqS6YhxJyPrnyXLqVbq5F9qG0mkevfzFYUxVh4KYL
u+FyArLvL04NAgMBAAGjZTBjMAkGA1UdEwQCMAAwFgYDVR0RBA8wDYILKi5tNGxr
eS5jb20wHQYDVR0OBBYEFCsZZKX/eCTAbly+Czul66p+AtlZMB8GA1UdIwQYMBaA
FPqpTmbhqS2NegYpdYO/HP5CrPmoMA0GCSqGSIb3DQEBCwUAA4IBAQBfzdcTW5m8
wAdO9RO9bYCXqsMoaOXhmCQP1TKwCT9Zoi2zZ6IeDTPT54ZVCNVn+Hi4tBlPjhrD
ydNM55edzSZrib0r6xScA7C9rV3WroWgQC0SViIgMK4EeNePPUo1zIAH5oiFmr/I
QaM8cqNkI5fs0qPZpPwufOCGGR3zxRqt80rzzaS7PsdjRwvfhJ/KIkmktwk37eiK
+0QCZSoZ8ihD4onbUKextumI35fK8qKmUndRlzsteQBF6HPQSJVNeZeXfZy+0F5S
VFvEhuzOVqDy9dW2aKfQLwhjvDDhv0wClyAOkja1EPAm9q/bKu/fFzI0ePnrE6Hl
gAc1/ByhIo9Q
-----END CERTIFICATE-----